(dp0
S'completed_ids'
p1
c__builtin__
set
p2
((lp3
tp4
Rp5
sS'mail_box'
p6
(lp7
(dp8
S'box_id'
p9
S'U'
p10
sS'result'
p11
I0
sS'side'
p12
g10
sa(dp13
g9
S'LD1'
p14
sg11
I2
sg12
S'L'
p15
sa(dp16
g9
S'LD2'
p17
sg11
I6
sg12
g15
sa(dp18
g9
S'LU1'
p19
sg11
I8
sg12
g15
sa(dp20
g9
S'LU2'
p21
sg11
I7
sg12
g15
sa(dp22
g9
S'RU2'
p23
sg11
I5
sg12
S'R'
p24
sa(dp25
g9
S'RU1'
p26
sg11
I3
sg12
g24
sasS'platform_state'
p27
I0
sS'mail_table'
p28
(lp29
(dp30
S'positions_z'
p31
I1
sS'results'
p32
I0
sS'positions_x'
p33
I1
sg12
g15
sa(dp34
g31
I1
sg32
I0
sg33
I2
sg12
g15
sa(dp35
g31
I2
sg32
I0
sg33
I1
sg12
g15
sa(dp36
g31
I2
sg32
I0
sg33
I2
sg12
g15
sa(dp37
g31
I1
sg32
I0
sg33
I3
sg12
g15
sa(dp38
g31
I1
sg32
I0
sg33
I4
sg12
g15
sa(dp39
g31
I2
sg32
I0
sg33
I3
sg12
g15
sa(dp40
g31
I2
sg32
I0
sg33
I4
sg12
g15
sa(dp41
g31
I1
sg32
I0
sg33
I5
sg12
g15
sa(dp42
g31
I2
sg32
I0
sg33
I5
sg12
g15
sa(dp43
g31
I1
sg32
I0
sg33
I6
sg12
g24
sa(dp44
g31
I2
sg32
I0
sg33
I6
sg12
g24
sa(dp45
g31
I1
sg32
I0
sg33
I7
sg12
g24
sa(dp46
g31
I1
sg32
I0
sg33
I8
sg12
g24
sa(dp47
g31
I2
sg32
I0
sg33
I7
sg12
g24
sa(dp48
g31
I2
sg32
I0
sg33
I8
sg12
g24
sa(dp49
g31
I1
sg32
I0
sg33
I9
sg12
g24
sa(dp50
g31
I1
sg32
I0
sg33
I10
sg12
g24
sa(dp51
g31
I2
sg32
I0
sg33
I9
sg12
g24
sa(dp52
g31
I2
sg32
I0
sg33
I10
sg12
g24
sasS'grabbed_mails'
p53
(lp54
s.