(dp0
S'mail_table_R'
p1
(lp2
(dp3
S'positions_z'
p4
I1
sS'results'
p5
I0
sS'positions_x'
p6
I6
sa(dp7
g4
I2
sg5
I0
sg6
I6
sa(dp8
g4
I1
sg5
I7
sg6
I7
sa(dp9
g4
I1
sg5
I0
sg6
I8
sa(dp10
g4
I2
sg5
I6
sg6
I7
sa(dp11
g4
I2
sg5
I4
sg6
I8
sa(dp12
g4
I1
sg5
I8
sg6
I9
sa(dp13
g4
I1
sg5
I4
sg6
I10
sa(dp14
g4
I2
sg5
I1
sg6
I9
sa(dp15
g4
I2
sg5
I5
sg6
I10
sasS'L_provinces'
p16
(lp17
I0
aI1
aI5
aI4
aI8
asS'completed_ids'
p18
c__builtin__
set
p19
((lp20
tp21
Rp22
sS'mail_box'
p23
(lp24
(dp25
S'box_id'
p26
S'U'
p27
sS'result'
p28
I0
sa(dp29
g26
S'LD1'
p30
sg28
I1
sa(dp31
g26
S'LD2'
p32
sg28
I5
sa(dp33
g26
S'LU1'
p34
sg28
I4
sa(dp35
g26
S'LU2'
p36
sg28
I8
sa(dp37
g26
S'RU2'
p38
sg28
I3
sa(dp39
g26
S'RU1'
p40
sg28
I2
sa(dp41
g26
S'RD1'
p42
sg28
I7
sasS'mail_table'
p43
(lp44
(dp45
g4
I1
sg5
I8
sg6
I1
sa(dp46
g4
I1
sg5
I5
sg6
I2
sa(dp47
g4
I2
sg5
I3
sg6
I1
sa(dp48
g4
I2
sg5
I2
sg6
I2
sa(dp49
g4
I1
sg5
I3
sg6
I3
sa(dp50
g4
I1
sg5
I2
sg6
I4
sa(dp51
g4
I2
sg5
I1
sg6
I3
sa(dp52
g4
I2
sg5
I7
sg6
I4
sa(dp53
g4
I1
sg5
I0
sg6
I5
sa(dp54
g4
I2
sg5
I0
sg6
I5
sa(dp55
g4
I1
sg5
I0
sg6
I6
sa(dp56
g4
I2
sg5
I0
sg6
I6
sa(dp57
g4
I1
sg5
I7
sg6
I7
sa(dp58
g4
I1
sg5
I0
sg6
I8
sa(dp59
g4
I2
sg5
I6
sg6
I7
sa(dp60
g4
I2
sg5
I4
sg6
I8
sa(dp61
g4
I1
sg5
I8
sg6
I9
sa(dp62
g4
I1
sg5
I4
sg6
I10
sa(dp63
g4
I2
sg5
I1
sg6
I9
sa(dp64
g4
I2
sg5
I5
sg6
I10
sasS'mail_table_L'
p65
(lp66
(dp67
g4
I1
sg5
I8
sg6
I1
sa(dp68
g4
I1
sg5
I5
sg6
I2
sa(dp69
g4
I2
sg5
I3
sg6
I1
sa(dp70
g4
I2
sg5
I2
sg6
I2
sa(dp71
g4
I1
sg5
I3
sg6
I3
sa(dp72
g4
I1
sg5
I2
sg6
I4
sa(dp73
g4
I2
sg5
I1
sg6
I3
sa(dp74
g4
I2
sg5
I7
sg6
I4
sa(dp75
g4
I1
sg5
I0
sg6
I5
sa(dp76
g4
I2
sg5
I0
sg6
I5
sasS'grabbed_mails'
p77
(lp78
sS'R_provinces'
p79
(lp80
I0
aI3
aI2
aI7
asS'current_phase'
p81
S'PHOTO'
p82
sS'success_provinces'
p83
g19
((lp84
I1
aI2
aI3
aI4
aI5
aI7
aI8
atp85
Rp86
sS'priority_provinces'
p87
(lp88
I0
aI1
aI5
aI4
aI8
aI3
aI2
aI7
asS'failed_boxes'
p89
(lp90
S'RD2'
p91
as.