(dp0
S'completed_ids'
p1
c__builtin__
set
p2
((lp3
tp4
Rp5
sS'mail_box'
p6
(lp7
(dp8
S'box_id'
p9
S'U'
p10
sS'result'
p11
I0
sS'side'
p12
g10
sa(dp13
g9
S'LD2'
p14
sg11
I5
sg12
S'L'
p15
sasS'platform_state'
p16
I0
sS'mail_table'
p17
(lp18
sS'grabbed_mails'
p19
(lp20
s.